; ModuleID = 'source-C-CXX/59/1103.c'
source_filename = "source-C-CXX/59/1103.c"
target datalayout = "e-m:e-p270:32:32-p271:32:32-p272:64:64-i64:64-f80:128-n8:16:32:64-S128"
target triple = "x86_64-pc-linux-gnu"

@.str = private unnamed_addr constant [3 x i8] c"%d\00", align 1
@.str.1 = private unnamed_addr constant [7 x i8] c"%d %d\0A\00", align 1
@.str.2 = private unnamed_addr constant [6 x i8] c"empty\00", align 1

; Function Attrs: nofree nounwind sspstrong uwtable
define dso_local i32 @main() local_unnamed_addr #0 {
  %1 = alloca i32, align 4
  %2 = alloca [10000 x i32], align 16
  %3 = bitcast i32* %1 to i8*
  call void @llvm.lifetime.start.p0i8(i64 4, i8* nonnull %3) #4
  %4 = bitcast [10000 x i32]* %2 to i8*
  call void @llvm.lifetime.start.p0i8(i64 40000, i8* nonnull %4) #4
  call void @llvm.memset.p0i8.i64(i8* noundef nonnull align 16 dereferenceable(40000) %4, i8 0, i64 40000, i1 false)
  %5 = call i32 (i8*, ...) @__isoc99_scanf(i8* getelementptr inbounds ([3 x i8], [3 x i8]* @.str, i64 0, i64 0), i32* nonnull %1)
  %6 = load i32, i32* %1, align 4, !tbaa !5
  %7 = icmp slt i32 %6, 3
  br i1 %7, label %68, label %8

8:                                                ; preds = %0, %49
  %9 = phi i32 [ %53, %49 ], [ 0, %0 ]
  %10 = phi i32 [ %50, %49 ], [ 0, %0 ]
  %11 = phi i32 [ %51, %49 ], [ 3, %0 ]
  %12 = icmp eq i32 %9, -1
  br i1 %12, label %36, label %13

13:                                               ; preds = %8
  %14 = shl nuw nsw i32 %9, 1
  %15 = add i32 %14, 2
  br label %20

16:                                               ; preds = %49
  %17 = getelementptr inbounds [10000 x i32], [10000 x i32]* %2, i64 0, i64 0
  %18 = load i32, i32* %17, align 16, !tbaa !5
  %19 = icmp eq i32 %18, 0
  br i1 %19, label %66, label %54

20:                                               ; preds = %20, %13
  %21 = phi i32 [ 0, %13 ], [ %32, %20 ]
  %22 = phi i32 [ 1, %13 ], [ %33, %20 ]
  %23 = phi i32 [ %15, %13 ], [ %34, %20 ]
  %24 = urem i32 %11, %22
  %25 = icmp eq i32 %24, 0
  %26 = zext i1 %25 to i32
  %27 = add nuw nsw i32 %21, %26
  %28 = add nuw nsw i32 %22, 1
  %29 = urem i32 %11, %28
  %30 = icmp eq i32 %29, 0
  %31 = zext i1 %30 to i32
  %32 = add nuw nsw i32 %27, %31
  %33 = add nuw nsw i32 %22, 2
  %34 = add nsw i32 %23, -2
  %35 = icmp eq i32 %34, 0
  br i1 %35, label %36, label %20, !llvm.loop !9

36:                                               ; preds = %8, %20
  %37 = phi i32 [ undef, %8 ], [ %32, %20 ]
  %38 = phi i32 [ 0, %8 ], [ %32, %20 ]
  %39 = phi i32 [ 1, %8 ], [ %33, %20 ]
  %40 = urem i32 %11, %39
  %41 = icmp eq i32 %40, 0
  %42 = zext i1 %41 to i32
  %43 = add nuw nsw i32 %38, %42
  %44 = icmp eq i32 %43, 2
  br i1 %44, label %45, label %49

45:                                               ; preds = %36
  %46 = sext i32 %10 to i64
  %47 = getelementptr inbounds [10000 x i32], [10000 x i32]* %2, i64 0, i64 %46
  store i32 %11, i32* %47, align 4, !tbaa !5
  %48 = add nsw i32 %10, 1
  br label %49

49:                                               ; preds = %36, %45
  %50 = phi i32 [ %48, %45 ], [ %10, %36 ]
  %51 = add nuw nsw i32 %11, 2
  %52 = icmp sgt i32 %51, %6
  %53 = add i32 %9, 1
  br i1 %52, label %16, label %8, !llvm.loop !11

54:                                               ; preds = %16, %64
  %55 = phi i64 [ %58, %64 ], [ 0, %16 ]
  %56 = phi i32 [ %60, %64 ], [ %18, %16 ]
  %57 = add nsw i32 %56, 2
  %58 = add nuw nsw i64 %55, 1
  %59 = getelementptr inbounds [10000 x i32], [10000 x i32]* %2, i64 0, i64 %58
  %60 = load i32, i32* %59, align 4, !tbaa !5
  %61 = icmp eq i32 %57, %60
  br i1 %61, label %62, label %64

62:                                               ; preds = %54
  %63 = call i32 (i8*, ...) @printf(i8* nonnull dereferenceable(1) getelementptr inbounds ([7 x i8], [7 x i8]* @.str.1, i64 0, i64 0), i32 %56, i32 %57)
  br label %64

64:                                               ; preds = %54, %62
  %65 = icmp eq i32 %60, 0
  br i1 %65, label %66, label %54, !llvm.loop !12

66:                                               ; preds = %64, %16
  %67 = icmp slt i32 %50, 2
  br i1 %67, label %68, label %70

68:                                               ; preds = %0, %66
  %69 = call i32 (i8*, ...) @printf(i8* nonnull dereferenceable(1) getelementptr inbounds ([6 x i8], [6 x i8]* @.str.2, i64 0, i64 0))
  br label %70

70:                                               ; preds = %68, %66
  call void @llvm.lifetime.end.p0i8(i64 40000, i8* nonnull %4) #4
  call void @llvm.lifetime.end.p0i8(i64 4, i8* nonnull %3) #4
  ret i32 0
}

; Function Attrs: argmemonly mustprogress nofree nosync nounwind willreturn
declare void @llvm.lifetime.start.p0i8(i64 immarg, i8* nocapture) #1

; Function Attrs: argmemonly mustprogress nofree nounwind willreturn writeonly
declare void @llvm.memset.p0i8.i64(i8* nocapture writeonly, i8, i64, i1 immarg) #2

; Function Attrs: nofree nounwind
declare noundef i32 @__isoc99_scanf(i8* nocapture noundef readonly, ...) local_unnamed_addr #3

; Function Attrs: nofree nounwind
declare noundef i32 @printf(i8* nocapture noundef readonly, ...) local_unnamed_addr #3

; Function Attrs: argmemonly mustprogress nofree nosync nounwind willreturn
declare void @llvm.lifetime.end.p0i8(i64 immarg, i8* nocapture) #1


!llvm.module.flags = !{!0, !1, !2, !3}
!llvm.ident = !{!4}

!0 = !{i32 1, !"wchar_size", i32 4}
!1 = !{i32 7, !"PIC Level", i32 2}
!2 = !{i32 7, !"PIE Level", i32 2}
!3 = !{i32 7, !"uwtable", i32 1}
!4 = !{!"clang version 13.0.0"}
!5 = !{!6, !6, i64 0}
!6 = !{!"int", !7, i64 0}
!7 = !{!"omnipotent char", !8, i64 0}
!8 = !{!"Simple C/C++ TBAA"}
!9 = distinct !{!9, !10}
!10 = !{!"llvm.loop.mustprogress"}
!11 = distinct !{!11, !10}
!12 = distinct !{!12, !10}
